
kernel.elf:     file format elf32-littlearm


Disassembly of section .text:

00008000 <__start>:
    8000:	e59ff018 	ldr	pc, [pc, #24]	@ 8020 <reset_addr>
    8004:	e59ff018 	ldr	pc, [pc, #24]	@ 8024 <undefined_instruction_addr>
    8008:	e59ff018 	ldr	pc, [pc, #24]	@ 8028 <software_interrupt_addr>
    800c:	e59ff018 	ldr	pc, [pc, #24]	@ 802c <prefetch_abort_addr>
    8010:	e59ff018 	ldr	pc, [pc, #24]	@ 8030 <data_abort_addr>
    8014:	e59ff018 	ldr	pc, [pc, #24]	@ 8034 <unused_handler_addr>
    8018:	e59ff018 	ldr	pc, [pc, #24]	@ 8038 <interrupt_addr>
    801c:	e59ff018 	ldr	pc, [pc, #24]	@ 803c <fast_interrupt_addr>

00008020 <reset_addr>:
    8020:	00008040 	andeq	r8, r0, r0, asr #32

00008024 <undefined_instruction_addr>:
    8024:	00008b34 	andeq	r8, r0, r4, lsr fp

00008028 <software_interrupt_addr>:
    8028:	00008be4 	andeq	r8, r0, r4, ror #23

0000802c <prefetch_abort_addr>:
    802c:	00008b48 	andeq	r8, r0, r8, asr #22

00008030 <data_abort_addr>:
    8030:	00008b5c 	andeq	r8, r0, ip, asr fp

00008034 <unused_handler_addr>:
    8034:	00008040 	andeq	r8, r0, r0, asr #32

00008038 <interrupt_addr>:
    8038:	00008a98 	muleq	r0, r8, sl

0000803c <fast_interrupt_addr>:
    803c:	00008b70 	andeq	r8, r0, r0, ror fp

00008040 <reset>:
    8040:	e3a0d902 	mov	sp, #32768	@ 0x8000
    8044:	e3a030d2 	mov	r3, #210	@ 0xd2
    8048:	e121f003 	msr	CPSR_c, r3
    804c:	e3a0d901 	mov	sp, #16384	@ 0x4000
    8050:	e3a030d3 	mov	r3, #211	@ 0xd3
    8054:	e121f003 	msr	CPSR_c, r3
    8058:	e59f303c 	ldr	r3, [pc, #60]	@ 809c <wait_forever+0x8>
    805c:	e3a04000 	mov	r4, #0
    8060:	e8b31fe0 	ldm	r3!, {r5, r6, r7, r8, r9, sl, fp, ip}
    8064:	e8a41fe0 	stmia	r4!, {r5, r6, r7, r8, r9, sl, fp, ip}
    8068:	e8b31fe0 	ldm	r3!, {r5, r6, r7, r8, r9, sl, fp, ip}
    806c:	e8a41fe0 	stmia	r4!, {r5, r6, r7, r8, r9, sl, fp, ip}
    8070:	e59f4028 	ldr	r4, [pc, #40]	@ 80a0 <wait_forever+0xc>
    8074:	e59f9028 	ldr	r9, [pc, #40]	@ 80a4 <wait_forever+0x10>
    8078:	e3a05000 	mov	r5, #0

0000807c <clear_bss>:
    807c:	e5845000 	str	r5, [r4]
    8080:	e2844004 	add	r4, r4, #4
    8084:	e1540009 	cmp	r4, r9
    8088:	dafffffb 	ble	807c <clear_bss>
    808c:	e59f3014 	ldr	r3, [pc, #20]	@ 80a8 <wait_forever+0x14>
    8090:	e12fff33 	blx	r3

00008094 <wait_forever>:
    8094:	e320f002 	wfe
    8098:	eafffffd 	b	8094 <wait_forever>
    809c:	00008000 	andeq	r8, r0, r0
    80a0:	0000b000 	andeq	fp, r0, r0
    80a4:	0000c000 	andeq	ip, r0, r0
    80a8:	000080ac 	andeq	r8, r0, ip, lsr #1

000080ac <kernel_main>:
    80ac:	e92d4010 	push	{r4, lr}
    80b0:	eb00024d 	bl	89ec <heartbeat_init>
    80b4:	eb000156 	bl	8614 <uart_init>
    80b8:	eb0002b6 	bl	8b98 <timer_init>
    80bc:	f1080080 	cpsie	i
    80c0:	eb000086 	bl	82e0 <i2c_init>
    80c4:	eb000000 	bl	80cc <rainbow_shell>
    80c8:	eafffffe 	b	80c8 <kernel_main+0x1c>

000080cc <rainbow_shell>:
    80cc:	e92d4070 	push	{r4, r5, r6, lr}
    80d0:	e3a06000 	mov	r6, #0
    80d4:	e24ddc01 	sub	sp, sp, #256	@ 0x100
    80d8:	e59f004c 	ldr	r0, [pc, #76]	@ 812c <rainbow_shell+0x60>
    80dc:	eb0001cd 	bl	8818 <printk>
    80e0:	e3a05000 	mov	r5, #0
    80e4:	ea000005 	b	8100 <rainbow_shell+0x34>
    80e8:	eb00024f 	bl	8a2c <putchar>
    80ec:	e35500ff 	cmp	r5, #255	@ 0xff
    80f0:	12853c01 	addne	r3, r5, #256	@ 0x100
    80f4:	108d3003 	addne	r3, sp, r3
    80f8:	15434100 	strbne	r4, [r3, #-256]	@ 0xffffff00
    80fc:	12855001 	addne	r5, r5, #1
    8100:	eb000257 	bl	8a64 <getchar>
    8104:	e350000d 	cmp	r0, #13
    8108:	1350000a 	cmpne	r0, #10
    810c:	e1a04000 	mov	r4, r0
    8110:	1afffff4 	bne	80e8 <rainbow_shell+0x1c>
    8114:	e1a0000d 	mov	r0, sp
    8118:	e08d5005 	add	r5, sp, r5
    811c:	e5c56000 	strb	r6, [r5]
    8120:	eb000015 	bl	817c <parse_input>
    8124:	e5cd6000 	strb	r6, [sp]
    8128:	eaffffea 	b	80d8 <rainbow_shell+0xc>
    812c:	00009000 	andeq	r9, r0, r0

00008130 <compare>:
    8130:	e5d03000 	ldrb	r3, [r0]
    8134:	e1a02000 	mov	r2, r0
    8138:	e3530000 	cmp	r3, #0
    813c:	1a000003 	bne	8150 <compare+0x20>
    8140:	ea000009 	b	816c <compare+0x3c>
    8144:	e5f23001 	ldrb	r3, [r2, #1]!
    8148:	e3530000 	cmp	r3, #0
    814c:	0a000006 	beq	816c <compare+0x3c>
    8150:	e4d10001 	ldrb	r0, [r1], #1
    8154:	e3500000 	cmp	r0, #0
    8158:	012fff1e 	bxeq	lr
    815c:	e1500003 	cmp	r0, r3
    8160:	0afffff7 	beq	8144 <compare+0x14>
    8164:	e3a00000 	mov	r0, #0
    8168:	e12fff1e 	bx	lr
    816c:	e5d10000 	ldrb	r0, [r1]
    8170:	e16f0f10 	clz	r0, r0
    8174:	e1a002a0 	lsr	r0, r0, #5
    8178:	e12fff1e 	bx	lr

0000817c <parse_input>:
    817c:	e92d4070 	push	{r4, r5, r6, lr}
    8180:	e5d03000 	ldrb	r3, [r0]
    8184:	e3530000 	cmp	r3, #0
    8188:	0a000022 	beq	8218 <parse_input+0x9c>
    818c:	e1a05000 	mov	r5, r0
    8190:	e1a04000 	mov	r4, r0
    8194:	e1a01003 	mov	r1, r3
    8198:	e59fc128 	ldr	ip, [pc, #296]	@ 82c8 <parse_input+0x14c>
    819c:	ea000004 	b	81b4 <parse_input+0x38>
    81a0:	e1520001 	cmp	r2, r1
    81a4:	1a000005 	bne	81c0 <parse_input+0x44>
    81a8:	e5f01001 	ldrb	r1, [r0, #1]!
    81ac:	e3510000 	cmp	r1, #0
    81b0:	0a00001e 	beq	8230 <parse_input+0xb4>
    81b4:	e4dc2001 	ldrb	r2, [ip], #1
    81b8:	e3520000 	cmp	r2, #0
    81bc:	1afffff7 	bne	81a0 <parse_input+0x24>
    81c0:	e1a01003 	mov	r1, r3
    81c4:	e59fc100 	ldr	ip, [pc, #256]	@ 82cc <parse_input+0x150>
    81c8:	ea000004 	b	81e0 <parse_input+0x64>
    81cc:	e1520001 	cmp	r2, r1
    81d0:	1a000005 	bne	81ec <parse_input+0x70>
    81d4:	e5f41001 	ldrb	r1, [r4, #1]!
    81d8:	e3510000 	cmp	r1, #0
    81dc:	0a00002c 	beq	8294 <parse_input+0x118>
    81e0:	e4dc2001 	ldrb	r2, [ip], #1
    81e4:	e3520000 	cmp	r2, #0
    81e8:	1afffff7 	bne	81cc <parse_input+0x50>
    81ec:	e1a00005 	mov	r0, r5
    81f0:	e59f10d8 	ldr	r1, [pc, #216]	@ 82d0 <parse_input+0x154>
    81f4:	ea000004 	b	820c <parse_input+0x90>
    81f8:	e1520003 	cmp	r2, r3
    81fc:	1a000005 	bne	8218 <parse_input+0x9c>
    8200:	e5f03001 	ldrb	r3, [r0, #1]!
    8204:	e3530000 	cmp	r3, #0
    8208:	0a000017 	beq	826c <parse_input+0xf0>
    820c:	e4d12001 	ldrb	r2, [r1], #1
    8210:	e3520000 	cmp	r2, #0
    8214:	1afffff7 	bne	81f8 <parse_input+0x7c>
    8218:	e3a0000d 	mov	r0, #13
    821c:	eb000202 	bl	8a2c <putchar>
    8220:	e3a0000a 	mov	r0, #10
    8224:	eb000200 	bl	8a2c <putchar>
    8228:	e3a00000 	mov	r0, #0
    822c:	e8bd8070 	pop	{r4, r5, r6, pc}
    8230:	e5dc2000 	ldrb	r2, [ip]
    8234:	e3520000 	cmp	r2, #0
    8238:	1affffe0 	bne	81c0 <parse_input+0x44>
    823c:	e59f0090 	ldr	r0, [pc, #144]	@ 82d4 <parse_input+0x158>
    8240:	eb000174 	bl	8818 <printk>
    8244:	e59f008c 	ldr	r0, [pc, #140]	@ 82d8 <parse_input+0x15c>
    8248:	eb000172 	bl	8818 <printk>
    824c:	e3a0000d 	mov	r0, #13
    8250:	eb0001f5 	bl	8a2c <putchar>
    8254:	e3a0000a 	mov	r0, #10
    8258:	eb0001f3 	bl	8a2c <putchar>
    825c:	e5d53000 	ldrb	r3, [r5]
    8260:	e3530000 	cmp	r3, #0
    8264:	1affffd5 	bne	81c0 <parse_input+0x44>
    8268:	eaffffea 	b	8218 <parse_input+0x9c>
    826c:	e5d13000 	ldrb	r3, [r1]
    8270:	e3530000 	cmp	r3, #0
    8274:	1affffe7 	bne	8218 <parse_input+0x9c>
    8278:	eb0000b1 	bl	8544 <i2c_scan>
    827c:	e3a0000d 	mov	r0, #13
    8280:	eb0001e9 	bl	8a2c <putchar>
    8284:	e3a0000a 	mov	r0, #10
    8288:	eb0001e7 	bl	8a2c <putchar>
    828c:	e3a00000 	mov	r0, #0
    8290:	e8bd8070 	pop	{r4, r5, r6, pc}
    8294:	e5dc2000 	ldrb	r2, [ip]
    8298:	e3520000 	cmp	r2, #0
    829c:	1affffd2 	bne	81ec <parse_input+0x70>
    82a0:	e59f0034 	ldr	r0, [pc, #52]	@ 82dc <parse_input+0x160>
    82a4:	eb00015b 	bl	8818 <printk>
    82a8:	e3a0000d 	mov	r0, #13
    82ac:	eb0001de 	bl	8a2c <putchar>
    82b0:	e3a0000a 	mov	r0, #10
    82b4:	eb0001dc 	bl	8a2c <putchar>
    82b8:	e5d53000 	ldrb	r3, [r5]
    82bc:	e3530000 	cmp	r3, #0
    82c0:	1affffc9 	bne	81ec <parse_input+0x70>
    82c4:	eaffffd3 	b	8218 <parse_input+0x9c>
    82c8:	00009008 	andeq	r9, r0, r8
    82cc:	00009044 	andeq	r9, r0, r4, asr #32
    82d0:	00009054 	andeq	r9, r0, r4, asr r0
    82d4:	00009010 	andeq	r9, r0, r0, lsl r0
    82d8:	00009028 	andeq	r9, r0, r8, lsr #32
    82dc:	0000904c 	andeq	r9, r0, ip, asr #32

000082e0 <i2c_init>:
    82e0:	e59f3090 	ldr	r3, [pc, #144]	@ 8378 <__delay_28+0x44>
    82e4:	e5931000 	ldr	r1, [r3]
    82e8:	e2813602 	add	r3, r1, #2097152	@ 0x200000
    82ec:	e5932000 	ldr	r2, [r3]
    82f0:	e3c22d07 	bic	r2, r2, #448	@ 0x1c0
    82f4:	e3822c01 	orr	r2, r2, #256	@ 0x100
    82f8:	e5832000 	str	r2, [r3]
    82fc:	e5932000 	ldr	r2, [r3]
    8300:	e3c22c0e 	bic	r2, r2, #3584	@ 0xe00
    8304:	e3822b02 	orr	r2, r2, #2048	@ 0x800
    8308:	e5832000 	str	r2, [r3]
    830c:	e3a02002 	mov	r2, #2
    8310:	e2830094 	add	r0, r3, #148	@ 0x94
    8314:	e5802000 	str	r2, [r0]
    8318:	e3a02096 	mov	r2, #150	@ 0x96
    831c:	e1a0c002 	mov	ip, r2

00008320 <__delay_24>:
    8320:	e25cc001 	subs	ip, ip, #1
    8324:	1afffffd 	bne	8320 <__delay_24>
    8328:	e3a0c00c 	mov	ip, #12
    832c:	e2833098 	add	r3, r3, #152	@ 0x98
    8330:	e583c000 	str	ip, [r3]

00008334 <__delay_28>:
    8334:	e2522001 	subs	r2, r2, #1
    8338:	1afffffd 	bne	8334 <__delay_28>
    833c:	e3a02000 	mov	r2, #0
    8340:	e5802000 	str	r2, [r0]
    8344:	e5832000 	str	r2, [r3]
    8348:	e59f302c 	ldr	r3, [pc, #44]	@ 837c <__delay_28+0x48>
    834c:	e59f202c 	ldr	r2, [pc, #44]	@ 8380 <__delay_28+0x4c>
    8350:	e0813003 	add	r3, r1, r3
    8354:	e5832000 	str	r2, [r3]
    8358:	e59f3024 	ldr	r3, [pc, #36]	@ 8384 <__delay_28+0x50>
    835c:	e3a02010 	mov	r2, #16
    8360:	e0813003 	add	r3, r1, r3
    8364:	e5832000 	str	r2, [r3]
    8368:	e3a02902 	mov	r2, #32768	@ 0x8000
    836c:	e5832000 	str	r2, [r3]
    8370:	e59f0010 	ldr	r0, [pc, #16]	@ 8388 <__delay_28+0x54>
    8374:	ea000127 	b	8818 <printk>
    8378:	0000a004 	andeq	sl, r0, r4
    837c:	7e804014 	mcrvc	0, 4, r4, cr0, cr4, {0}
    8380:	000009c4 	andeq	r0, r0, r4, asr #19
    8384:	7e804000 	cdpvc	0, 8, cr4, cr0, cr0, {0}
    8388:	00009060 	andeq	r9, r0, r0, rrx

0000838c <i2c_write>:
    838c:	e59f3098 	ldr	r3, [pc, #152]	@ 842c <i2c_write+0xa0>
    8390:	e92d4010 	push	{r4, lr}
    8394:	e59fc094 	ldr	ip, [pc, #148]	@ 8430 <i2c_write+0xa4>
    8398:	e593e000 	ldr	lr, [r3]
    839c:	e59f3090 	ldr	r3, [pc, #144]	@ 8434 <i2c_write+0xa8>
    83a0:	e08ec00c 	add	ip, lr, ip
    83a4:	e58c3000 	str	r3, [ip]
    83a8:	e59f3088 	ldr	r3, [pc, #136]	@ 8438 <i2c_write+0xac>
    83ac:	e08e3003 	add	r3, lr, r3
    83b0:	e5830000 	str	r0, [r3]
    83b4:	e59f3080 	ldr	r3, [pc, #128]	@ 843c <i2c_write+0xb0>
    83b8:	e08e3003 	add	r3, lr, r3
    83bc:	e5832000 	str	r2, [r3]
    83c0:	e59f4078 	ldr	r4, [pc, #120]	@ 8440 <i2c_write+0xb4>
    83c4:	e3a03010 	mov	r3, #16
    83c8:	e08e4004 	add	r4, lr, r4
    83cc:	e5843000 	str	r3, [r4]
    83d0:	e3520000 	cmp	r2, #0
    83d4:	0a000008 	beq	83fc <i2c_write+0x70>
    83d8:	e59f0064 	ldr	r0, [pc, #100]	@ 8444 <i2c_write+0xb8>
    83dc:	e0812002 	add	r2, r1, r2
    83e0:	e2423001 	sub	r3, r2, #1
    83e4:	e2411001 	sub	r1, r1, #1
    83e8:	e08e0000 	add	r0, lr, r0
    83ec:	e5f12001 	ldrb	r2, [r1, #1]!
    83f0:	e5802000 	str	r2, [r0]
    83f4:	e1510003 	cmp	r1, r3
    83f8:	1afffffb 	bne	83ec <i2c_write+0x60>
    83fc:	e59f3044 	ldr	r3, [pc, #68]	@ 8448 <i2c_write+0xbc>
    8400:	e5843000 	str	r3, [r4]
    8404:	ea000001 	b	8410 <i2c_write+0x84>
    8408:	e3130c03 	tst	r3, #768	@ 0x300
    840c:	1a000004 	bne	8424 <i2c_write+0x98>
    8410:	e59c3000 	ldr	r3, [ip]
    8414:	e3130002 	tst	r3, #2
    8418:	0afffffa 	beq	8408 <i2c_write+0x7c>
    841c:	e3a00000 	mov	r0, #0
    8420:	e8bd8010 	pop	{r4, pc}
    8424:	e3e00000 	mvn	r0, #0
    8428:	e8bd8010 	pop	{r4, pc}
    842c:	0000a004 	andeq	sl, r0, r4
    8430:	7e804004 	cdpvc	0, 8, cr4, cr0, cr4, {0}
    8434:	00000302 	andeq	r0, r0, r2, lsl #6
    8438:	7e80400c 	cdpvc	0, 8, cr4, cr0, cr12, {0}
    843c:	7e804008 	cdpvc	0, 8, cr4, cr0, cr8, {0}
    8440:	7e804000 	cdpvc	0, 8, cr4, cr0, cr0, {0}
    8444:	7e804010 	mcrvc	0, 4, r4, cr0, cr0, {0}
    8448:	00008080 	andeq	r8, r0, r0, lsl #1

0000844c <i2c_read>:
    844c:	e92d40f0 	push	{r4, r5, r6, r7, lr}
    8450:	e59f40cc 	ldr	r4, [pc, #204]	@ 8524 <i2c_read+0xd8>
    8454:	e59f50cc 	ldr	r5, [pc, #204]	@ 8528 <i2c_read+0xdc>
    8458:	e5943000 	ldr	r3, [r4]
    845c:	e59fe0c8 	ldr	lr, [pc, #200]	@ 852c <i2c_read+0xe0>
    8460:	e083c005 	add	ip, r3, r5
    8464:	e1a06001 	mov	r6, r1
    8468:	e58ce000 	str	lr, [ip]
    846c:	e59f10bc 	ldr	r1, [pc, #188]	@ 8530 <i2c_read+0xe4>
    8470:	e0831001 	add	r1, r3, r1
    8474:	e5810000 	str	r0, [r1]
    8478:	e59f10b4 	ldr	r1, [pc, #180]	@ 8534 <i2c_read+0xe8>
    847c:	e0831001 	add	r1, r3, r1
    8480:	e5812000 	str	r2, [r1]
    8484:	e59f10ac 	ldr	r1, [pc, #172]	@ 8538 <i2c_read+0xec>
    8488:	e3a00011 	mov	r0, #17
    848c:	e0831001 	add	r1, r3, r1
    8490:	e5810000 	str	r0, [r1]
    8494:	e59f00a0 	ldr	r0, [pc, #160]	@ 853c <i2c_read+0xf0>
    8498:	e5810000 	str	r0, [r1]
    849c:	e3a0e000 	mov	lr, #0
    84a0:	e59f1098 	ldr	r1, [pc, #152]	@ 8540 <i2c_read+0xf4>
    84a4:	e59c0000 	ldr	r0, [ip]
    84a8:	e15e0002 	cmp	lr, r2
    84ac:	23a0c000 	movcs	ip, #0
    84b0:	33a0c001 	movcc	ip, #1
    84b4:	e01cc1a0 	ands	ip, ip, r0, lsr #3
    84b8:	0a00000d 	beq	84f4 <i2c_read+0xa8>
    84bc:	e24e7001 	sub	r7, lr, #1
    84c0:	e0867007 	add	r7, r6, r7
    84c4:	e0833001 	add	r3, r3, r1
    84c8:	e5933000 	ldr	r3, [r3]
    84cc:	e5e73001 	strb	r3, [r7, #1]!
    84d0:	e5943000 	ldr	r3, [r4]
    84d4:	e28ee001 	add	lr, lr, #1
    84d8:	e0830005 	add	r0, r3, r5
    84dc:	e5900000 	ldr	r0, [r0]
    84e0:	e152000e 	cmp	r2, lr
    84e4:	93a0c000 	movls	ip, #0
    84e8:	83a0c001 	movhi	ip, #1
    84ec:	e01cc1a0 	ands	ip, ip, r0, lsr #3
    84f0:	1afffff3 	bne	84c4 <i2c_read+0x78>
    84f4:	e3100002 	tst	r0, #2
    84f8:	1a000005 	bne	8514 <i2c_read+0xc8>
    84fc:	e3100c03 	tst	r0, #768	@ 0x300
    8500:	1a000005 	bne	851c <i2c_read+0xd0>
    8504:	e5943000 	ldr	r3, [r4]
    8508:	e59fc018 	ldr	ip, [pc, #24]	@ 8528 <i2c_read+0xdc>
    850c:	e083c00c 	add	ip, r3, ip
    8510:	eaffffe3 	b	84a4 <i2c_read+0x58>
    8514:	e3a00000 	mov	r0, #0
    8518:	e8bd80f0 	pop	{r4, r5, r6, r7, pc}
    851c:	e3e00000 	mvn	r0, #0
    8520:	e8bd80f0 	pop	{r4, r5, r6, r7, pc}
    8524:	0000a004 	andeq	sl, r0, r4
    8528:	7e804004 	cdpvc	0, 8, cr4, cr0, cr4, {0}
    852c:	00000302 	andeq	r0, r0, r2, lsl #6
    8530:	7e80400c 	cdpvc	0, 8, cr4, cr0, cr12, {0}
    8534:	7e804008 	cdpvc	0, 8, cr4, cr0, cr8, {0}
    8538:	7e804000 	cdpvc	0, 8, cr4, cr0, cr0, {0}
    853c:	00008080 	andeq	r8, r0, r0, lsl #1
    8540:	7e804010 	mcrvc	0, 4, r4, cr0, cr0, {0}

00008544 <i2c_scan>:
    8544:	e92d47f0 	push	{r4, r5, r6, r7, r8, r9, sl, lr}
    8548:	e3a0a003 	mov	sl, #3
    854c:	e59f909c 	ldr	r9, [pc, #156]	@ 85f0 <i2c_scan+0xac>
    8550:	e59f809c 	ldr	r8, [pc, #156]	@ 85f4 <i2c_scan+0xb0>
    8554:	e59f709c 	ldr	r7, [pc, #156]	@ 85f8 <i2c_scan+0xb4>
    8558:	e59f609c 	ldr	r6, [pc, #156]	@ 85fc <i2c_scan+0xb8>
    855c:	e59f509c 	ldr	r5, [pc, #156]	@ 8600 <i2c_scan+0xbc>
    8560:	e59f409c 	ldr	r4, [pc, #156]	@ 8604 <i2c_scan+0xc0>
    8564:	e5993000 	ldr	r3, [r9]
    8568:	e3a02010 	mov	r2, #16
    856c:	e0831008 	add	r1, r3, r8
    8570:	e5812000 	str	r2, [r1]
    8574:	e0832007 	add	r2, r3, r7
    8578:	e582a000 	str	sl, [r2]
    857c:	e3a00001 	mov	r0, #1
    8580:	e0832006 	add	r2, r3, r6
    8584:	e5820000 	str	r0, [r2]
    8588:	e59f0078 	ldr	r0, [pc, #120]	@ 8608 <i2c_scan+0xc4>
    858c:	e0832005 	add	r2, r3, r5
    8590:	e5820000 	str	r0, [r2]
    8594:	e3a00000 	mov	r0, #0
    8598:	e0833004 	add	r3, r3, r4
    859c:	e5830000 	str	r0, [r3]
    85a0:	e59f3064 	ldr	r3, [pc, #100]	@ 860c <i2c_scan+0xc8>
    85a4:	e5813000 	str	r3, [r1]
    85a8:	ea000001 	b	85b4 <i2c_scan+0x70>
    85ac:	e3530000 	cmp	r3, #0
    85b0:	1a000005 	bne	85cc <i2c_scan+0x88>
    85b4:	e5923000 	ldr	r3, [r2]
    85b8:	e3130002 	tst	r3, #2
    85bc:	e2033c03 	and	r3, r3, #768	@ 0x300
    85c0:	0afffff9 	beq	85ac <i2c_scan+0x68>
    85c4:	e3530000 	cmp	r3, #0
    85c8:	0a000004 	beq	85e0 <i2c_scan+0x9c>
    85cc:	e28aa001 	add	sl, sl, #1
    85d0:	e35a0078 	cmp	sl, #120	@ 0x78
    85d4:	1affffe2 	bne	8564 <i2c_scan+0x20>
    85d8:	e3a00000 	mov	r0, #0
    85dc:	e8bd87f0 	pop	{r4, r5, r6, r7, r8, r9, sl, pc}
    85e0:	e1a0100a 	mov	r1, sl
    85e4:	e59f0024 	ldr	r0, [pc, #36]	@ 8610 <i2c_scan+0xcc>
    85e8:	eb00008a 	bl	8818 <printk>
    85ec:	eafffff6 	b	85cc <i2c_scan+0x88>
    85f0:	0000a004 	andeq	sl, r0, r4
    85f4:	7e804000 	cdpvc	0, 8, cr4, cr0, cr0, {0}
    85f8:	7e80400c 	cdpvc	0, 8, cr4, cr0, cr12, {0}
    85fc:	7e804008 	cdpvc	0, 8, cr4, cr0, cr8, {0}
    8600:	7e804004 	cdpvc	0, 8, cr4, cr0, cr4, {0}
    8604:	7e804010 	mcrvc	0, 4, r4, cr0, cr0, {0}
    8608:	00000302 	andeq	r0, r0, r2, lsl #6
    860c:	00008080 	andeq	r8, r0, r0, lsl #1
    8610:	0000907c 	andeq	r9, r0, ip, ror r0

00008614 <uart_init>:
    8614:	e59f30a0 	ldr	r3, [pc, #160]	@ 86bc <__delay_27+0x68>
    8618:	e59f00a0 	ldr	r0, [pc, #160]	@ 86c0 <__delay_27+0x6c>
    861c:	e5933000 	ldr	r3, [r3]
    8620:	e3a0c000 	mov	ip, #0
    8624:	e52de004 	push	{lr}		@ (str lr, [sp, #-4]!)
    8628:	e0830000 	add	r0, r3, r0
    862c:	e580c000 	str	ip, [r0]
    8630:	e2832602 	add	r2, r3, #2097152	@ 0x200000
    8634:	e282e004 	add	lr, r2, #4
    8638:	e59e1000 	ldr	r1, [lr]
    863c:	e3c11a3f 	bic	r1, r1, #258048	@ 0x3f000
    8640:	e3811909 	orr	r1, r1, #147456	@ 0x24000
    8644:	e58e1000 	str	r1, [lr]
    8648:	e2821094 	add	r1, r2, #148	@ 0x94
    864c:	e581c000 	str	ip, [r1]
    8650:	e3a01096 	mov	r1, #150	@ 0x96

00008654 <__delay_27>:
    8654:	e2511001 	subs	r1, r1, #1
    8658:	1afffffd 	bne	8654 <__delay_27>
    865c:	e2822098 	add	r2, r2, #152	@ 0x98
    8660:	e582c000 	str	ip, [r2]
    8664:	e59f2058 	ldr	r2, [pc, #88]	@ 86c4 <__delay_27+0x70>
    8668:	e0832002 	add	r2, r3, r2
    866c:	e582c000 	str	ip, [r2]
    8670:	e59f2050 	ldr	r2, [pc, #80]	@ 86c8 <__delay_27+0x74>
    8674:	e59f1050 	ldr	r1, [pc, #80]	@ 86cc <__delay_27+0x78>
    8678:	e0832002 	add	r2, r3, r2
    867c:	e5821000 	str	r1, [r2]
    8680:	e59f2048 	ldr	r2, [pc, #72]	@ 86d0 <__delay_27+0x7c>
    8684:	e3a0101a 	mov	r1, #26
    8688:	e0832002 	add	r2, r3, r2
    868c:	e5821000 	str	r1, [r2]
    8690:	e59f203c 	ldr	r2, [pc, #60]	@ 86d4 <__delay_27+0x80>
    8694:	e3a01003 	mov	r1, #3
    8698:	e0832002 	add	r2, r3, r2
    869c:	e5821000 	str	r1, [r2]
    86a0:	e59f2030 	ldr	r2, [pc, #48]	@ 86d8 <__delay_27+0x84>
    86a4:	e3a01070 	mov	r1, #112	@ 0x70
    86a8:	e0832002 	add	r2, r3, r2
    86ac:	e5821000 	str	r1, [r2]
    86b0:	e59f3024 	ldr	r3, [pc, #36]	@ 86dc <__delay_27+0x88>
    86b4:	e5803000 	str	r3, [r0]
    86b8:	e49df004 	pop	{pc}		@ (ldr pc, [sp], #4)
    86bc:	0000a004 	andeq	sl, r0, r4
    86c0:	00201030 	eoreq	r1, r0, r0, lsr r0
    86c4:	00201038 	eoreq	r1, r0, r8, lsr r0
    86c8:	00201044 	eoreq	r1, r0, r4, asr #32
    86cc:	000007ff 	strdeq	r0, [r0], -pc	@ <UNPREDICTABLE>
    86d0:	00201024 	eoreq	r1, r0, r4, lsr #32
    86d4:	00201028 	eoreq	r1, r0, r8, lsr #32
    86d8:	0020102c 	eoreq	r1, r0, ip, lsr #32
    86dc:	00000301 	andeq	r0, r0, r1, lsl #6

000086e0 <uart_putc>:
    86e0:	e59f3024 	ldr	r3, [pc, #36]	@ 870c <uart_putc+0x2c>
    86e4:	e59f2024 	ldr	r2, [pc, #36]	@ 8710 <uart_putc+0x30>
    86e8:	e5931000 	ldr	r1, [r3]
    86ec:	e0812002 	add	r2, r1, r2
    86f0:	e5923000 	ldr	r3, [r2]
    86f4:	e3130020 	tst	r3, #32
    86f8:	1afffffc 	bne	86f0 <uart_putc+0x10>
    86fc:	e2813602 	add	r3, r1, #2097152	@ 0x200000
    8700:	e2833a01 	add	r3, r3, #4096	@ 0x1000
    8704:	e5830000 	str	r0, [r3]
    8708:	e12fff1e 	bx	lr
    870c:	0000a004 	andeq	sl, r0, r4
    8710:	00201018 	eoreq	r1, r0, r8, lsl r0

00008714 <uart_getc>:
    8714:	e59f3028 	ldr	r3, [pc, #40]	@ 8744 <uart_getc+0x30>
    8718:	e59f2028 	ldr	r2, [pc, #40]	@ 8748 <uart_getc+0x34>
    871c:	e5930000 	ldr	r0, [r3]
    8720:	e0802002 	add	r2, r0, r2
    8724:	e5923000 	ldr	r3, [r2]
    8728:	e3130010 	tst	r3, #16
    872c:	1afffffc 	bne	8724 <uart_getc+0x10>
    8730:	e2800602 	add	r0, r0, #2097152	@ 0x200000
    8734:	e2800a01 	add	r0, r0, #4096	@ 0x1000
    8738:	e5900000 	ldr	r0, [r0]
    873c:	e6ef0070 	uxtb	r0, r0
    8740:	e12fff1e 	bx	lr
    8744:	0000a004 	andeq	sl, r0, r4
    8748:	00201018 	eoreq	r1, r0, r8, lsl r0

0000874c <uart_write>:
    874c:	e1a03001 	mov	r3, r1
    8750:	e1a01000 	mov	r1, r0
    8754:	e2530000 	subs	r0, r3, #0
    8758:	012fff1e 	bxeq	lr
    875c:	e92d4030 	push	{r4, r5, lr}
    8760:	e3a0500d 	mov	r5, #13
    8764:	e59f3064 	ldr	r3, [pc, #100]	@ 87d0 <uart_write+0x84>
    8768:	e59f2064 	ldr	r2, [pc, #100]	@ 87d4 <uart_write+0x88>
    876c:	e593c000 	ldr	ip, [r3]
    8770:	e081e000 	add	lr, r1, r0
    8774:	e08c2002 	add	r2, ip, r2
    8778:	e28cc602 	add	ip, ip, #2097152	@ 0x200000
    877c:	e5d14001 	ldrb	r4, [r1, #1]
    8780:	e28cca01 	add	ip, ip, #4096	@ 0x1000
    8784:	e2411001 	sub	r1, r1, #1
    8788:	e24ee001 	sub	lr, lr, #1
    878c:	e5923000 	ldr	r3, [r2]
    8790:	e3130020 	tst	r3, #32
    8794:	1afffffc 	bne	878c <uart_write+0x40>
    8798:	e58c4000 	str	r4, [ip]
    879c:	e5f13001 	ldrb	r3, [r1, #1]!
    87a0:	e353000a 	cmp	r3, #10
    87a4:	0a000002 	beq	87b4 <uart_write+0x68>
    87a8:	e151000e 	cmp	r1, lr
    87ac:	1afffff6 	bne	878c <uart_write+0x40>
    87b0:	e8bd8030 	pop	{r4, r5, pc}
    87b4:	e5923000 	ldr	r3, [r2]
    87b8:	e3130020 	tst	r3, #32
    87bc:	1afffffc 	bne	87b4 <uart_write+0x68>
    87c0:	e58c5000 	str	r5, [ip]
    87c4:	e151000e 	cmp	r1, lr
    87c8:	1affffef 	bne	878c <uart_write+0x40>
    87cc:	e8bd8030 	pop	{r4, r5, pc}
    87d0:	0000a004 	andeq	sl, r0, r4
    87d4:	00201018 	eoreq	r1, r0, r8, lsl r0

000087d8 <uart_getc_noblock>:
    87d8:	e59f2030 	ldr	r2, [pc, #48]	@ 8810 <uart_getc_noblock+0x38>
    87dc:	e59f3030 	ldr	r3, [pc, #48]	@ 8814 <uart_getc_noblock+0x3c>
    87e0:	e5920000 	ldr	r0, [r2]
    87e4:	e0803003 	add	r3, r0, r3
    87e8:	e5933000 	ldr	r3, [r3]
    87ec:	e3130010 	tst	r3, #16
    87f0:	1a000004 	bne	8808 <uart_getc_noblock+0x30>
    87f4:	e2800602 	add	r0, r0, #2097152	@ 0x200000
    87f8:	e2800a01 	add	r0, r0, #4096	@ 0x1000
    87fc:	e5900000 	ldr	r0, [r0]
    8800:	e6ef0070 	uxtb	r0, r0
    8804:	e12fff1e 	bx	lr
    8808:	e3a00000 	mov	r0, #0
    880c:	e12fff1e 	bx	lr
    8810:	0000a004 	andeq	sl, r0, r4
    8814:	00201018 	eoreq	r1, r0, r8, lsl r0

00008818 <printk>:
    8818:	e92d000f 	push	{r0, r1, r2, r3}
    881c:	e92d40f0 	push	{r4, r5, r6, r7, lr}
    8820:	e3a04000 	mov	r4, #0
    8824:	e24ddf45 	sub	sp, sp, #276	@ 0x114
    8828:	e28d3f4b 	add	r3, sp, #300	@ 0x12c
    882c:	e59d2128 	ldr	r2, [sp, #296]	@ 0x128
    8830:	e58d3000 	str	r3, [sp]
    8834:	e28d0010 	add	r0, sp, #16
    8838:	e5d23000 	ldrb	r3, [r2]
    883c:	e3530000 	cmp	r3, #0
    8840:	0a000008 	beq	8868 <printk+0x50>
    8844:	e3530025 	cmp	r3, #37	@ 0x25
    8848:	e2821001 	add	r1, r2, #1
    884c:	0a00000c 	beq	8884 <printk+0x6c>
    8850:	e1a02001 	mov	r2, r1
    8854:	e08d1004 	add	r1, sp, r4
    8858:	e5c13010 	strb	r3, [r1, #16]
    885c:	e2844001 	add	r4, r4, #1
    8860:	e35400ff 	cmp	r4, #255	@ 0xff
    8864:	1afffff3 	bne	8838 <printk+0x20>
    8868:	e1a01004 	mov	r1, r4
    886c:	ebffffb6 	bl	874c <uart_write>
    8870:	e1a00004 	mov	r0, r4
    8874:	e28ddf45 	add	sp, sp, #276	@ 0x114
    8878:	e8bd40f0 	pop	{r4, r5, r6, r7, lr}
    887c:	e28dd010 	add	sp, sp, #16
    8880:	e12fff1e 	bx	lr
    8884:	e5d23001 	ldrb	r3, [r2, #1]
    8888:	e3530064 	cmp	r3, #100	@ 0x64
    888c:	0a000005 	beq	88a8 <printk+0x90>
    8890:	e3530078 	cmp	r3, #120	@ 0x78
    8894:	0a000021 	beq	8920 <printk+0x108>
    8898:	e3530073 	cmp	r3, #115	@ 0x73
    889c:	0a00003c 	beq	8994 <printk+0x17c>
    88a0:	e1a02001 	mov	r2, r1
    88a4:	eaffffe3 	b	8838 <printk+0x20>
    88a8:	e59d3000 	ldr	r3, [sp]
    88ac:	e28de004 	add	lr, sp, #4
    88b0:	e2831004 	add	r1, r3, #4
    88b4:	e593c000 	ldr	ip, [r3]
    88b8:	e3a03009 	mov	r3, #9
    88bc:	e59f7124 	ldr	r7, [pc, #292]	@ 89e8 <printk+0x1d0>
    88c0:	e2822002 	add	r2, r2, #2
    88c4:	e58d1000 	str	r1, [sp]
    88c8:	e28e600a 	add	r6, lr, #10
    88cc:	e1a05003 	mov	r5, r3
    88d0:	e0c13c97 	smull	r3, r1, r7, ip
    88d4:	e1a03fcc 	asr	r3, ip, #31
    88d8:	e0633141 	rsb	r3, r3, r1, asr #2
    88dc:	e0831103 	add	r1, r3, r3, lsl #2
    88e0:	e04c1081 	sub	r1, ip, r1, lsl #1
    88e4:	e2811030 	add	r1, r1, #48	@ 0x30
    88e8:	e253c000 	subs	ip, r3, #0
    88ec:	e5661001 	strb	r1, [r6, #-1]!
    88f0:	e2453001 	sub	r3, r5, #1
    88f4:	1afffff4 	bne	88cc <printk+0xb4>
    88f8:	e08e3005 	add	r3, lr, r5
    88fc:	e0801004 	add	r1, r0, r4
    8900:	e28ee00a 	add	lr, lr, #10
    8904:	e4d3c001 	ldrb	ip, [r3], #1
    8908:	e153000e 	cmp	r3, lr
    890c:	e4c1c001 	strb	ip, [r1], #1
    8910:	1afffffb 	bne	8904 <printk+0xec>
    8914:	e284400a 	add	r4, r4, #10
    8918:	e0444005 	sub	r4, r4, r5
    891c:	eaffffcf 	b	8860 <printk+0x48>
    8920:	e59d3000 	ldr	r3, [sp]
    8924:	e28de004 	add	lr, sp, #4
    8928:	e2831004 	add	r1, r3, #4
    892c:	e3a0c009 	mov	ip, #9
    8930:	e5933000 	ldr	r3, [r3]
    8934:	e2822002 	add	r2, r2, #2
    8938:	e58d1000 	str	r1, [sp]
    893c:	e28e500a 	add	r5, lr, #10
    8940:	ea000000 	b	8948 <printk+0x130>
    8944:	e1a0c006 	mov	ip, r6
    8948:	e203100f 	and	r1, r3, #15
    894c:	e3510009 	cmp	r1, #9
    8950:	92811030 	addls	r1, r1, #48	@ 0x30
    8954:	82811057 	addhi	r1, r1, #87	@ 0x57
    8958:	e353000f 	cmp	r3, #15
    895c:	e24c6001 	sub	r6, ip, #1
    8960:	e1a03223 	lsr	r3, r3, #4
    8964:	e5651001 	strb	r1, [r5, #-1]!
    8968:	8afffff5 	bhi	8944 <printk+0x12c>
    896c:	e08e300c 	add	r3, lr, ip
    8970:	e0801004 	add	r1, r0, r4
    8974:	e28ee00a 	add	lr, lr, #10
    8978:	e4d35001 	ldrb	r5, [r3], #1
    897c:	e153000e 	cmp	r3, lr
    8980:	e4c15001 	strb	r5, [r1], #1
    8984:	1afffffb 	bne	8978 <printk+0x160>
    8988:	e284400a 	add	r4, r4, #10
    898c:	e044400c 	sub	r4, r4, ip
    8990:	eaffffb2 	b	8860 <printk+0x48>
    8994:	e59d3000 	ldr	r3, [sp]
    8998:	e2822002 	add	r2, r2, #2
    899c:	e5935000 	ldr	r5, [r3]
    89a0:	e2831004 	add	r1, r3, #4
    89a4:	e5d53000 	ldrb	r3, [r5]
    89a8:	e58d1000 	str	r1, [sp]
    89ac:	e3530000 	cmp	r3, #0
    89b0:	0a00000a 	beq	89e0 <printk+0x1c8>
    89b4:	e1a01005 	mov	r1, r5
    89b8:	e080c004 	add	ip, r0, r4
    89bc:	e4cc3001 	strb	r3, [ip], #1
    89c0:	e1a0e001 	mov	lr, r1
    89c4:	e5f13001 	ldrb	r3, [r1, #1]!
    89c8:	e3530000 	cmp	r3, #0
    89cc:	1afffffa 	bne	89bc <printk+0x1a4>
    89d0:	e2655001 	rsb	r5, r5, #1
    89d4:	e0855004 	add	r5, r5, r4
    89d8:	e08e4005 	add	r4, lr, r5
    89dc:	eaffff9f 	b	8860 <printk+0x48>
    89e0:	e1a01002 	mov	r1, r2
    89e4:	eaffffad 	b	88a0 <printk+0x88>
    89e8:	66666667 	strbtvs	r6, [r6], -r7, ror #12

000089ec <heartbeat_init>:
    89ec:	e3a0260a 	mov	r2, #10485760	@ 0xa00000
    89f0:	e5923040 	ldr	r3, [r2, #64]	@ 0x40
    89f4:	e3c3360e 	bic	r3, r3, #14680064	@ 0xe00000
    89f8:	e3833602 	orr	r3, r3, #2097152	@ 0x200000
    89fc:	e5823040 	str	r3, [r2, #64]	@ 0x40
    8a00:	e12fff1e 	bx	lr

00008a04 <act_on>:
    8a04:	e3a0360a 	mov	r3, #10485760	@ 0xa00000
    8a08:	e3a02a02 	mov	r2, #8192	@ 0x2000
    8a0c:	e3a00000 	mov	r0, #0
    8a10:	e5832080 	str	r2, [r3, #128]	@ 0x80
    8a14:	e12fff1e 	bx	lr

00008a18 <act_off>:
    8a18:	e3a0360a 	mov	r3, #10485760	@ 0xa00000
    8a1c:	e3a02a02 	mov	r2, #8192	@ 0x2000
    8a20:	e3a00000 	mov	r0, #0
    8a24:	e58320b0 	str	r2, [r3, #176]	@ 0xb0
    8a28:	e12fff1e 	bx	lr

00008a2c <putchar>:
    8a2c:	e1a03000 	mov	r3, r0
    8a30:	e3a00001 	mov	r0, #1
    8a34:	e52d7004 	push	{r7}		@ (str r7, [sp, #-4]!)
    8a38:	e24dd00c 	sub	sp, sp, #12
    8a3c:	e3a07004 	mov	r7, #4
    8a40:	e1a02000 	mov	r2, r0
    8a44:	e28d1004 	add	r1, sp, #4
    8a48:	e5cd3004 	strb	r3, [sp, #4]
    8a4c:	ef000000 	svc	0x00000000
    8a50:	e3700a01 	cmn	r0, #4096	@ 0x1000
    8a54:	83e00000 	mvnhi	r0, #0
    8a58:	e28dd00c 	add	sp, sp, #12
    8a5c:	e49d7004 	pop	{r7}		@ (ldr r7, [sp], #4)
    8a60:	e12fff1e 	bx	lr

00008a64 <getchar>:
    8a64:	e52d7004 	push	{r7}		@ (str r7, [sp, #-4]!)
    8a68:	e24dd00c 	sub	sp, sp, #12
    8a6c:	e3a00000 	mov	r0, #0
    8a70:	e3a02001 	mov	r2, #1
    8a74:	e3a07003 	mov	r7, #3
    8a78:	e28d1004 	add	r1, sp, #4
    8a7c:	ef000000 	svc	0x00000000
    8a80:	e5dd0004 	ldrb	r0, [sp, #4]
    8a84:	e3500000 	cmp	r0, #0
    8a88:	0afffff7 	beq	8a6c <getchar+0x8>
    8a8c:	e28dd00c 	add	sp, sp, #12
    8a90:	e49d7004 	pop	{r7}		@ (ldr r7, [sp], #4)
    8a94:	e12fff1e 	bx	lr

00008a98 <interrupt_handler>:
    8a98:	e24ee004 	sub	lr, lr, #4
    8a9c:	e92d503f 	push	{r0, r1, r2, r3, r4, r5, ip, lr}
    8aa0:	e59f3078 	ldr	r3, [pc, #120]	@ 8b20 <interrupt_handler+0x88>
    8aa4:	e5933000 	ldr	r3, [r3]
    8aa8:	e2831cb2 	add	r1, r3, #45568	@ 0xb200
    8aac:	e5911000 	ldr	r1, [r1]
    8ab0:	e3110001 	tst	r1, #1
    8ab4:	0a000013 	beq	8b08 <interrupt_handler+0x70>
    8ab8:	e2833b2d 	add	r3, r3, #46080	@ 0xb400
    8abc:	e3a04001 	mov	r4, #1
    8ac0:	e283300c 	add	r3, r3, #12
    8ac4:	e5834000 	str	r4, [r3]
    8ac8:	e59f3054 	ldr	r3, [pc, #84]	@ 8b24 <interrupt_handler+0x8c>
    8acc:	e5933000 	ldr	r3, [r3]
    8ad0:	e3530000 	cmp	r3, #0
    8ad4:	0a000006 	beq	8af4 <interrupt_handler+0x5c>
    8ad8:	e59f5048 	ldr	r5, [pc, #72]	@ 8b28 <interrupt_handler+0x90>
    8adc:	e5953000 	ldr	r3, [r5]
    8ae0:	e3530000 	cmp	r3, #0
    8ae4:	0a00000a 	beq	8b14 <interrupt_handler+0x7c>
    8ae8:	ebffffc5 	bl	8a04 <act_on>
    8aec:	e3a03000 	mov	r3, #0
    8af0:	e5853000 	str	r3, [r5]
    8af4:	e59f2030 	ldr	r2, [pc, #48]	@ 8b2c <interrupt_handler+0x94>
    8af8:	e5923000 	ldr	r3, [r2]
    8afc:	e2833001 	add	r3, r3, #1
    8b00:	e5823000 	str	r3, [r2]
    8b04:	e8fd903f 	ldm	sp!, {r0, r1, r2, r3, r4, r5, ip, pc}^
    8b08:	e59f0020 	ldr	r0, [pc, #32]	@ 8b30 <interrupt_handler+0x98>
    8b0c:	ebffff41 	bl	8818 <printk>
    8b10:	e8fd903f 	ldm	sp!, {r0, r1, r2, r3, r4, r5, ip, pc}^
    8b14:	ebffffbf 	bl	8a18 <act_off>
    8b18:	e5854000 	str	r4, [r5]
    8b1c:	eafffff4 	b	8af4 <interrupt_handler+0x5c>
    8b20:	0000a004 	andeq	sl, r0, r4
    8b24:	0000a008 	andeq	sl, r0, r8
    8b28:	0000b000 	andeq	fp, r0, r0
    8b2c:	0000b004 	andeq	fp, r0, r4
    8b30:	00009094 	muleq	r0, r4, r0

00008b34 <undefined_handler>:
    8b34:	e92d500f 	push	{r0, r1, r2, r3, ip, lr}
    8b38:	e59f0004 	ldr	r0, [pc, #4]	@ 8b44 <undefined_handler+0x10>
    8b3c:	ebffff35 	bl	8818 <printk>
    8b40:	eafffffe 	b	8b40 <undefined_handler+0xc>
    8b44:	000090ac 	andeq	r9, r0, ip, lsr #1

00008b48 <prefetch_handler>:
    8b48:	e92d500f 	push	{r0, r1, r2, r3, ip, lr}
    8b4c:	e59f0004 	ldr	r0, [pc, #4]	@ 8b58 <prefetch_handler+0x10>
    8b50:	ebffff30 	bl	8818 <printk>
    8b54:	eafffffe 	b	8b54 <prefetch_handler+0xc>
    8b58:	000090c4 	andeq	r9, r0, r4, asr #1

00008b5c <data_handler>:
    8b5c:	e92d500f 	push	{r0, r1, r2, r3, ip, lr}
    8b60:	e59f0004 	ldr	r0, [pc, #4]	@ 8b6c <data_handler+0x10>
    8b64:	ebffff2b 	bl	8818 <printk>
    8b68:	eafffffe 	b	8b68 <data_handler+0xc>
    8b6c:	000090ec 	andeq	r9, r0, ip, ror #1

00008b70 <fiq_handler>:
    8b70:	e92d401f 	push	{r0, r1, r2, r3, r4, lr}
    8b74:	e59f0004 	ldr	r0, [pc, #4]	@ 8b80 <fiq_handler+0x10>
    8b78:	ebffff26 	bl	8818 <printk>
    8b7c:	eafffffe 	b	8b7c <fiq_handler+0xc>
    8b80:	00009110 	andeq	r9, r0, r0, lsl r1

00008b84 <reset_error>:
    8b84:	e92d4010 	push	{r4, lr}
    8b88:	e59f0004 	ldr	r0, [pc, #4]	@ 8b94 <reset_error+0x10>
    8b8c:	ebffff21 	bl	8818 <printk>
    8b90:	eafffffe 	b	8b90 <reset_error+0xc>
    8b94:	0000912c 	andeq	r9, r0, ip, lsr #2

00008b98 <timer_init>:
    8b98:	e59f3040 	ldr	r3, [pc, #64]	@ 8be0 <timer_init+0x48>
    8b9c:	e5933000 	ldr	r3, [r3]
    8ba0:	e2832b2d 	add	r2, r3, #46080	@ 0xb400
    8ba4:	e2821008 	add	r1, r2, #8
    8ba8:	e5910000 	ldr	r0, [r1]
    8bac:	e3a0c0f9 	mov	ip, #249	@ 0xf9
    8bb0:	e282001c 	add	r0, r2, #28
    8bb4:	e580c000 	str	ip, [r0]
    8bb8:	e3a00d3d 	mov	r0, #3904	@ 0xf40
    8bbc:	e5820000 	str	r0, [r2]
    8bc0:	e3a020aa 	mov	r2, #170	@ 0xaa
    8bc4:	e5812000 	str	r2, [r1]
    8bc8:	e2833cb2 	add	r3, r3, #45568	@ 0xb200
    8bcc:	e2833018 	add	r3, r3, #24
    8bd0:	e3a02001 	mov	r2, #1
    8bd4:	e5832000 	str	r2, [r3]
    8bd8:	e3a00000 	mov	r0, #0
    8bdc:	e12fff1e 	bx	lr
    8be0:	0000a004 	andeq	sl, r0, r4

00008be4 <swi_handler>:
    8be4:	e357000d 	cmp	r7, #13
    8be8:	e92d509f 	push	{r0, r1, r2, r3, r4, r7, ip, lr}
    8bec:	e1a04000 	mov	r4, r0
    8bf0:	0a00001a 	beq	8c60 <swi_handler+0x7c>
    8bf4:	ca00000a 	bgt	8c24 <swi_handler+0x40>
    8bf8:	e3570003 	cmp	r7, #3
    8bfc:	e1a00001 	mov	r0, r1
    8c00:	0a00001d 	beq	8c7c <swi_handler+0x98>
    8c04:	e3570004 	cmp	r7, #4
    8c08:	1a00000f 	bne	8c4c <swi_handler+0x68>
    8c0c:	e2443001 	sub	r3, r4, #1
    8c10:	e3530001 	cmp	r3, #1
    8c14:	8a000024 	bhi	8cac <swi_handler+0xc8>
    8c18:	e1a01002 	mov	r1, r2
    8c1c:	eb000032 	bl	8cec <serial_write>
    8c20:	e8fd909f 	ldm	sp!, {r0, r1, r2, r3, r4, r7, ip, pc}^
    8c24:	e3570a02 	cmp	r7, #8192	@ 0x2000
    8c28:	1a000007 	bne	8c4c <swi_handler+0x68>
    8c2c:	e3500000 	cmp	r0, #0
    8c30:	1a000016 	bne	8c90 <swi_handler+0xac>
    8c34:	e59f0094 	ldr	r0, [pc, #148]	@ 8cd0 <swi_handler+0xec>
    8c38:	ebfffef6 	bl	8818 <printk>
    8c3c:	e59f3090 	ldr	r3, [pc, #144]	@ 8cd4 <swi_handler+0xf0>
    8c40:	e3a00000 	mov	r0, #0
    8c44:	e5834000 	str	r4, [r3]
    8c48:	e8fd909f 	ldm	sp!, {r0, r1, r2, r3, r4, r7, ip, pc}^
    8c4c:	e1a01007 	mov	r1, r7
    8c50:	e59f0080 	ldr	r0, [pc, #128]	@ 8cd8 <swi_handler+0xf4>
    8c54:	ebfffeef 	bl	8818 <printk>
    8c58:	e3a00000 	mov	r0, #0
    8c5c:	e8fd909f 	ldm	sp!, {r0, r1, r2, r3, r4, r7, ip, pc}^
    8c60:	e3500000 	cmp	r0, #0
    8c64:	0a000013 	beq	8cb8 <swi_handler+0xd4>
    8c68:	e59f306c 	ldr	r3, [pc, #108]	@ 8cdc <swi_handler+0xf8>
    8c6c:	e5933000 	ldr	r3, [r3]
    8c70:	e5803000 	str	r3, [r0]
    8c74:	e3a00000 	mov	r0, #0
    8c78:	e8fd909f 	ldm	sp!, {r0, r1, r2, r3, r4, r7, ip, pc}^
    8c7c:	e3540000 	cmp	r4, #0
    8c80:	1a00000e 	bne	8cc0 <swi_handler+0xdc>
    8c84:	e1a01002 	mov	r1, r2
    8c88:	eb000018 	bl	8cf0 <serial_read>
    8c8c:	e8fd909f 	ldm	sp!, {r0, r1, r2, r3, r4, r7, ip, pc}^
    8c90:	e59f0048 	ldr	r0, [pc, #72]	@ 8ce0 <swi_handler+0xfc>
    8c94:	ebfffedf 	bl	8818 <printk>
    8c98:	e3a02001 	mov	r2, #1
    8c9c:	e59f3030 	ldr	r3, [pc, #48]	@ 8cd4 <swi_handler+0xf0>
    8ca0:	e3a00000 	mov	r0, #0
    8ca4:	e5832000 	str	r2, [r3]
    8ca8:	e8fd909f 	ldm	sp!, {r0, r1, r2, r3, r4, r7, ip, pc}^
    8cac:	e1a01004 	mov	r1, r4
    8cb0:	e59f002c 	ldr	r0, [pc, #44]	@ 8ce4 <swi_handler+0x100>
    8cb4:	ebfffed7 	bl	8818 <printk>
    8cb8:	e3e00000 	mvn	r0, #0
    8cbc:	e8fd909f 	ldm	sp!, {r0, r1, r2, r3, r4, r7, ip, pc}^
    8cc0:	e1a01004 	mov	r1, r4
    8cc4:	e59f001c 	ldr	r0, [pc, #28]	@ 8ce8 <swi_handler+0x104>
    8cc8:	ebfffed2 	bl	8818 <printk>
    8ccc:	eafffff9 	b	8cb8 <swi_handler+0xd4>
    8cd0:	00009194 	muleq	r0, r4, r1
    8cd4:	0000a008 	andeq	sl, r0, r8
    8cd8:	000091b8 			@ <UNDEFINED> instruction: 0x000091b8
    8cdc:	0000b004 	andeq	fp, r0, r4
    8ce0:	000091a8 	andeq	r9, r0, r8, lsr #3
    8ce4:	0000916c 	andeq	r9, r0, ip, ror #2
    8ce8:	00009140 	andeq	r9, r0, r0, asr #2

00008cec <serial_write>:
    8cec:	eafffe96 	b	874c <uart_write>

00008cf0 <serial_read>:
    8cf0:	e92d4070 	push	{r4, r5, r6, lr}
    8cf4:	e2516000 	subs	r6, r1, #0
    8cf8:	0a00000c 	beq	8d30 <serial_read+0x40>
    8cfc:	e3a04000 	mov	r4, #0
    8d00:	e2405001 	sub	r5, r0, #1
    8d04:	ea000002 	b	8d14 <serial_read+0x24>
    8d08:	e2844001 	add	r4, r4, #1
    8d0c:	e1540006 	cmp	r4, r6
    8d10:	0a000004 	beq	8d28 <serial_read+0x38>
    8d14:	ebfffeaf 	bl	87d8 <uart_getc_noblock>
    8d18:	e6ef0070 	uxtb	r0, r0
    8d1c:	e3500000 	cmp	r0, #0
    8d20:	e5e50001 	strb	r0, [r5, #1]!
    8d24:	1afffff7 	bne	8d08 <serial_read+0x18>
    8d28:	e1a00004 	mov	r0, r4
    8d2c:	e8bd8070 	pop	{r4, r5, r6, pc}
    8d30:	e1a04006 	mov	r4, r6
    8d34:	eafffffb 	b	8d28 <serial_read+0x38>
